; Function Attrs: mustprogress nofree norecurse nosync nounwind willreturn memory(read, inaccessiblemem: none) uwtable
define dso_local noundef zeroext range(i8 0, 32) i8 @_ZN5clang17computeDependenceEPNS_20CoroutineSuspendExprE(ptr noundef readonly captures(none) %0) local_unnamed_addr #0 {
  %2 = getelementptr inbounds nuw i8, ptr %0, i64 56
  %3 = load ptr, ptr %2, align 8
  %.not = icmp eq ptr %3, null
  br i1 %.not, label %10, label %4

4:                                                ; preds = %1
  %5 = getelementptr inbounds nuw i8, ptr %3, i64 1
  %6 = load i16, ptr %5, align 1
  %7 = lshr i16 %6, 5
  %8 = trunc i16 %7 to i8
  %9 = and i8 %8, 28
  br label %10

10:                                               ; preds = %1, %4
  %.sink8 = phi i8 [ 19, %4 ], [ 17, %1 ]
  %.sink6 = phi i8 [ %9, %4 ], [ 14, %1 ]
  %11 = getelementptr inbounds nuw i8, ptr %0, i64 32
  %12 = load ptr, ptr %11, align 8
  %13 = getelementptr inbounds nuw i8, ptr %12, i64 1
  %14 = load i16, ptr %13, align 1
  %15 = lshr i16 %14, 5
  %16 = trunc i16 %15 to i8
  %17 = and i8 %.sink8, %16
  %18 = or i8 %17, %.sink6
  ret i8 %18
}